; ModuleID = '54/991.c'
source_filename = "54/991.c"
target datalayout = "e-m:e-p270:32:32-p271:32:32-p272:64:64-i64:64-f80:128-n8:16:32:64-S128"
target triple = "x86_64-pc-linux-gnu"

@.str = private unnamed_addr constant [6 x i8] c"%d %d\00", align 1
@.str.1 = private unnamed_addr constant [4 x i8] c"%d\0A\00", align 1

; Function Attrs: noinline nounwind uwtable
define dso_local i32 @apple(i32 %0, i32 %1) #0 {
  %3 = alloca i32, align 4
  %4 = alloca i32, align 4
  %5 = alloca i32, align 4
  store i32 %0, i32* %4, align 4
  store i32 %1, i32* %5, align 4
  %6 = load i32, i32* %4, align 4
  %7 = icmp eq i32 %6, 2
  br i1 %7, label %8, label %22

8:                                                ; preds = %2
  %9 = load i32, i32* %4, align 4
  %10 = sitofp i32 %9 to double
  %11 = load i32, i32* %4, align 4
  %12 = sitofp i32 %11 to double
  %13 = call double @pow(double %10, double %12) #3
  %14 = fmul double 2.000000e+00, %13
  %15 = load i32, i32* %4, align 4
  %16 = sub nsw i32 %15, 1
  %17 = load i32, i32* %5, align 4
  %18 = mul nsw i32 %16, %17
  %19 = sitofp i32 %18 to double
  %20 = fsub double %14, %19
  %21 = fptosi double %20 to i32
  store i32 %21, i32* %3, align 4
  br label %35

22:                                               ; preds = %2
  %23 = load i32, i32* %4, align 4
  %24 = sitofp i32 %23 to double
  %25 = load i32, i32* %4, align 4
  %26 = sitofp i32 %25 to double
  %27 = call double @pow(double %24, double %26) #3
  %28 = load i32, i32* %4, align 4
  %29 = sub nsw i32 %28, 1
  %30 = load i32, i32* %5, align 4
  %31 = mul nsw i32 %29, %30
  %32 = sitofp i32 %31 to double
  %33 = fsub double %27, %32
  %34 = fptosi double %33 to i32
  store i32 %34, i32* %3, align 4
  br label %35

35:                                               ; preds = %22, %8
  %36 = load i32, i32* %3, align 4
  ret i32 %36
}

; Function Attrs: nounwind
declare dso_local double @pow(double, double) #1

; Function Attrs: noinline nounwind uwtable
define dso_local i32 @main() #0 {
  %1 = alloca i32, align 4
  %2 = alloca i32, align 4
  %3 = alloca i32, align 4
  store i32 0, i32* %1, align 4
  %4 = call i32 (i8*, ...) @__isoc99_scanf(i8* getelementptr inbounds ([6 x i8], [6 x i8]* @.str, i64 0, i64 0), i32* %2, i32* %3)
  %5 = load i32, i32* %2, align 4
  %6 = load i32, i32* %3, align 4
  %7 = call i32 @apple(i32 %5, i32 %6)
  %8 = call i32 (i8*, ...) @printf(i8* getelementptr inbounds ([4 x i8], [4 x i8]* @.str.1, i64 0, i64 0), i32 %7)
  ret i32 0
}

declare dso_local i32 @__isoc99_scanf(i8*, ...) #2

declare dso_local i32 @printf(i8*, ...) #2


!llvm.module.flags = !{!0}
!llvm.ident = !{!1}

!0 = !{i32 1, !"wchar_size", i32 4}
!1 = !{!"clang version 10.0.0-4ubuntu1 "}
